; Function Attrs: mustprogress uwtable
define noundef nonnull align 8 dereferenceable(32) ptr @_ZNK5boost15program_options18option_description9long_nameB5cxx11Ev(ptr nocapture noundef nonnull readonly align 8 dereferenceable(112) %0) local_unnamed_addr #1 align 2 personality ptr @__gxx_personality_v0 {
  %2 = alloca %"class.std::allocator", align 1
  %3 = load atomic i8, ptr @_ZGVZNK5boost15program_options18option_description9long_nameB5cxx11EvE12empty_stringB5cxx11 acquire, align 8
  %4 = icmp eq i8 %3, 0
  br i1 %4, label %5, label %10, !prof !63

5:                                                ; preds = %1
  %6 = tail call i32 @__cxa_guard_acquire(ptr nonnull @_ZGVZNK5boost15program_options18option_description9long_nameB5cxx11EvE12empty_stringB5cxx11) #30
  %.not = icmp eq i32 %6, 0
  br i1 %.not, label %10, label %7

7:                                                ; preds = %5
  call void @llvm.lifetime.start.p0(i64 1, ptr nonnull %2) #30
  invoke void @_ZNSt7__cxx1112basic_stringIcSt11char_traitsIcESaIcEEC2IS3_EEPKcRKS3_(ptr noundef nonnull align 8 dereferenceable(32) @_ZZNK5boost15program_options18option_description9long_nameB5cxx11EvE12empty_stringB5cxx11, ptr noundef nonnull @.str.3, ptr noundef nonnull align 1 dereferenceable(1) %2)
          to label %8 unwind label %16

8:                                                ; preds = %7
  call void @llvm.lifetime.end.p0(i64 1, ptr nonnull %2) #30
  %9 = call i32 @__cxa_atexit(ptr nonnull @_ZNSt7__cxx1112basic_stringIcSt11char_traitsIcESaIcEED2Ev, ptr nonnull @_ZZNK5boost15program_options18option_description9long_nameB5cxx11EvE12empty_stringB5cxx11, ptr nonnull @__dso_handle) #30
  call void @__cxa_guard_release(ptr nonnull @_ZGVZNK5boost15program_options18option_description9long_nameB5cxx11EvE12empty_stringB5cxx11) #30
  br label %10

10:                                               ; preds = %8, %5, %1
  %11 = getelementptr inbounds nuw i8, ptr %0, i64 40
  %12 = load ptr, ptr %11, align 8, !tbaa !37
  %13 = getelementptr inbounds nuw i8, ptr %0, i64 48
  %14 = load ptr, ptr %13, align 8, !tbaa !37
  %15 = icmp eq ptr %12, %14
  %spec.select = select i1 %15, ptr @_ZZNK5boost15program_options18option_description9long_nameB5cxx11EvE12empty_stringB5cxx11, ptr %12
  ret ptr %spec.select

16:                                               ; preds = %7
  %17 = landingpad { ptr, i32 }
          cleanup
  call void @llvm.lifetime.end.p0(i64 1, ptr nonnull %2) #30
  call void @__cxa_guard_abort(ptr nonnull @_ZGVZNK5boost15program_options18option_description9long_nameB5cxx11EvE12empty_stringB5cxx11) #30
  resume { ptr, i32 } %17
}